ARM GAS  C:\Users\Xwx47\AppData\Local\Temp\ccePoOms.s 			page 1


   1              		.cpu cortex-m0plus
   2              		.fpu softvfp
   3              		.eabi_attribute 20, 1
   4              		.eabi_attribute 21, 1
   5              		.eabi_attribute 23, 3
   6              		.eabi_attribute 24, 1
   7              		.eabi_attribute 25, 1
   8              		.eabi_attribute 26, 1
   9              		.eabi_attribute 30, 1
  10              		.eabi_attribute 34, 0
  11              		.eabi_attribute 18, 4
  12              		.code	16
  13              		.file	"SmartIO.c"
  14              		.text
  15              	.Ltext0:
  16              		.cfi_sections	.debug_frame
  17              		.section	.text.SmartIO_Init,"ax",%progbits
  18              		.align	2
  19              		.global	SmartIO_Init
  20              		.code	16
  21              		.thumb_func
  22              		.type	SmartIO_Init, %function
  23              	SmartIO_Init:
  24              	.LFB0:
  25              		.file 1 ".\\Generated_Source\\PSoC4\\SmartIO.c"
   1:.\Generated_Source\PSoC4/SmartIO.c **** /*******************************************************************************
   2:.\Generated_Source\PSoC4/SmartIO.c **** * \file SmartIO.c
   3:.\Generated_Source\PSoC4/SmartIO.c **** * \version 1.0
   4:.\Generated_Source\PSoC4/SmartIO.c **** *
   5:.\Generated_Source\PSoC4/SmartIO.c **** * \brief
   6:.\Generated_Source\PSoC4/SmartIO.c **** *  This file provides the  API for the SmartIO Component.
   7:.\Generated_Source\PSoC4/SmartIO.c **** *
   8:.\Generated_Source\PSoC4/SmartIO.c **** *******************************************************************************
   9:.\Generated_Source\PSoC4/SmartIO.c **** * Copyright 2016, Cypress Semiconductor Corporation. All rights reserved.
  10:.\Generated_Source\PSoC4/SmartIO.c **** * You may use this file only in accordance with the license, terms, conditions,
  11:.\Generated_Source\PSoC4/SmartIO.c **** * disclaimers, and limitations in the end user license agreement accompanying
  12:.\Generated_Source\PSoC4/SmartIO.c **** * the software package with which this file was provided.
  13:.\Generated_Source\PSoC4/SmartIO.c **** *******************************************************************************/
  14:.\Generated_Source\PSoC4/SmartIO.c **** 
  15:.\Generated_Source\PSoC4/SmartIO.c **** #include "SmartIO.h"
  16:.\Generated_Source\PSoC4/SmartIO.c **** 
  17:.\Generated_Source\PSoC4/SmartIO.c **** /* Initialization global variable */
  18:.\Generated_Source\PSoC4/SmartIO.c **** uint8 SmartIO_initVar = 0u;
  19:.\Generated_Source\PSoC4/SmartIO.c **** 
  20:.\Generated_Source\PSoC4/SmartIO.c **** /* Clock configuration */
  21:.\Generated_Source\PSoC4/SmartIO.c **** static uint32 SmartIO_clkConfig = 0u;
  22:.\Generated_Source\PSoC4/SmartIO.c **** 
  23:.\Generated_Source\PSoC4/SmartIO.c **** 
  24:.\Generated_Source\PSoC4/SmartIO.c **** /*******************************************************************************
  25:.\Generated_Source\PSoC4/SmartIO.c **** * Function Name: SmartIO_Init
  26:.\Generated_Source\PSoC4/SmartIO.c **** ****************************************************************************//**
  27:.\Generated_Source\PSoC4/SmartIO.c **** *
  28:.\Generated_Source\PSoC4/SmartIO.c **** * \brief Initializes the component as specified in the Configuration Dialog.
  29:.\Generated_Source\PSoC4/SmartIO.c **** *
  30:.\Generated_Source\PSoC4/SmartIO.c **** * This function can also be used to reinitialize the component to the settings 
  31:.\Generated_Source\PSoC4/SmartIO.c **** * as specified in the Configuration dialog.
  32:.\Generated_Source\PSoC4/SmartIO.c **** *
ARM GAS  C:\Users\Xwx47\AppData\Local\Temp\ccePoOms.s 			page 2


  33:.\Generated_Source\PSoC4/SmartIO.c **** * \funcusage
  34:.\Generated_Source\PSoC4/SmartIO.c **** *  \snippet SmartIO_SUT.c usage_SmartIO_Init
  35:.\Generated_Source\PSoC4/SmartIO.c **** *******************************************************************************/
  36:.\Generated_Source\PSoC4/SmartIO.c **** void SmartIO_Init(void)
  37:.\Generated_Source\PSoC4/SmartIO.c **** {
  26              		.loc 1 37 0
  27              		.cfi_startproc
  38:.\Generated_Source\PSoC4/SmartIO.c ****     /* Must disable the block before configuring */
  39:.\Generated_Source\PSoC4/SmartIO.c ****     SmartIO_Disable();
  28              		.loc 1 39 0
  29 0000 154A     		ldr	r2, .L2
  30 0002 1368     		ldr	r3, [r2]
  31 0004 5B00     		lsl	r3, r3, #1
  32 0006 5B08     		lsr	r3, r3, #1
  33 0008 1360     		str	r3, [r2]
  40:.\Generated_Source\PSoC4/SmartIO.c ****     /* Save the clock configuration */
  41:.\Generated_Source\PSoC4/SmartIO.c ****     SmartIO_clkConfig = SmartIO_INIT_CLOCK_SRC;
  34              		.loc 1 41 0
  35 000a F821     		mov	r1, #248
  36 000c 4901     		lsl	r1, r1, #5
  37 000e 134B     		ldr	r3, .L2+4
  38 0010 1960     		str	r1, [r3]
  42:.\Generated_Source\PSoC4/SmartIO.c ****     /* General control */
  43:.\Generated_Source\PSoC4/SmartIO.c ****     SmartIO_CTL = SmartIO_INIT_CTL_CONFIG;
  39              		.loc 1 43 0
  40 0012 134B     		ldr	r3, .L2+8
  41 0014 1360     		str	r3, [r2]
  44:.\Generated_Source\PSoC4/SmartIO.c ****     /* Synchronization control */
  45:.\Generated_Source\PSoC4/SmartIO.c ****     SmartIO_SYNC_CTL = SmartIO_INIT_SYNC_CONFIG;
  42              		.loc 1 45 0
  43 0016 0022     		mov	r2, #0
  44 0018 124B     		ldr	r3, .L2+12
  45 001a 1A60     		str	r2, [r3]
  46:.\Generated_Source\PSoC4/SmartIO.c ****     /* LUT input selection */
  47:.\Generated_Source\PSoC4/SmartIO.c ****     SmartIO_LUT_CONGIG_BASE.lutSel[SmartIO_LUT0] = SmartIO_INIT_LUT0_SEL_CONFIG;
  46              		.loc 1 47 0
  47 001c 124B     		ldr	r3, .L2+16
  48 001e 1349     		ldr	r1, .L2+20
  49 0020 1960     		str	r1, [r3]
  48:.\Generated_Source\PSoC4/SmartIO.c ****     SmartIO_LUT_CONGIG_BASE.lutSel[SmartIO_LUT1] = SmartIO_INIT_LUT1_SEL_CONFIG;
  50              		.loc 1 48 0
  51 0022 1349     		ldr	r1, .L2+24
  52 0024 5960     		str	r1, [r3, #4]
  49:.\Generated_Source\PSoC4/SmartIO.c ****     SmartIO_LUT_CONGIG_BASE.lutSel[SmartIO_LUT2] = SmartIO_INIT_LUT2_SEL_CONFIG;
  53              		.loc 1 49 0
  54 0026 1349     		ldr	r1, .L2+28
  55 0028 9960     		str	r1, [r3, #8]
  50:.\Generated_Source\PSoC4/SmartIO.c ****     SmartIO_LUT_CONGIG_BASE.lutSel[SmartIO_LUT3] = SmartIO_INIT_LUT3_SEL_CONFIG;
  56              		.loc 1 50 0
  57 002a D960     		str	r1, [r3, #12]
  51:.\Generated_Source\PSoC4/SmartIO.c ****     SmartIO_LUT_CONGIG_BASE.lutSel[SmartIO_LUT4] = SmartIO_INIT_LUT4_SEL_CONFIG;
  58              		.loc 1 51 0
  59 002c 0120     		mov	r0, #1
  60 002e 1861     		str	r0, [r3, #16]
  52:.\Generated_Source\PSoC4/SmartIO.c ****     SmartIO_LUT_CONGIG_BASE.lutSel[SmartIO_LUT5] = SmartIO_INIT_LUT5_SEL_CONFIG;
  61              		.loc 1 52 0
  62 0030 5961     		str	r1, [r3, #20]
ARM GAS  C:\Users\Xwx47\AppData\Local\Temp\ccePoOms.s 			page 3


  53:.\Generated_Source\PSoC4/SmartIO.c ****     SmartIO_LUT_CONGIG_BASE.lutSel[SmartIO_LUT6] = SmartIO_INIT_LUT6_SEL_CONFIG;
  63              		.loc 1 53 0
  64 0032 9961     		str	r1, [r3, #24]
  54:.\Generated_Source\PSoC4/SmartIO.c ****     SmartIO_LUT_CONGIG_BASE.lutSel[SmartIO_LUT7] = SmartIO_INIT_LUT7_SEL_CONFIG;
  65              		.loc 1 54 0
  66 0034 D961     		str	r1, [r3, #28]
  55:.\Generated_Source\PSoC4/SmartIO.c ****     /* LUT control */
  56:.\Generated_Source\PSoC4/SmartIO.c ****     SmartIO_LUT_CONGIG_BASE.lutCtl[SmartIO_LUT0] = SmartIO_INIT_LUT0_CTL_CONFIG;
  67              		.loc 1 56 0
  68 0036 1862     		str	r0, [r3, #32]
  57:.\Generated_Source\PSoC4/SmartIO.c ****     SmartIO_LUT_CONGIG_BASE.lutCtl[SmartIO_LUT1] = SmartIO_INIT_LUT1_CTL_CONFIG;
  69              		.loc 1 57 0
  70 0038 5862     		str	r0, [r3, #36]
  58:.\Generated_Source\PSoC4/SmartIO.c ****     SmartIO_LUT_CONGIG_BASE.lutCtl[SmartIO_LUT2] = SmartIO_INIT_LUT2_CTL_CONFIG;
  71              		.loc 1 58 0
  72 003a 8021     		mov	r1, #128
  73 003c 9962     		str	r1, [r3, #40]
  59:.\Generated_Source\PSoC4/SmartIO.c ****     SmartIO_LUT_CONGIG_BASE.lutCtl[SmartIO_LUT3] = SmartIO_INIT_LUT3_CTL_CONFIG;
  74              		.loc 1 59 0
  75 003e DA62     		str	r2, [r3, #44]
  60:.\Generated_Source\PSoC4/SmartIO.c ****     SmartIO_LUT_CONGIG_BASE.lutCtl[SmartIO_LUT4] = SmartIO_INIT_LUT4_CTL_CONFIG;
  76              		.loc 1 60 0
  77 0040 0139     		sub	r1, r1, #1
  78 0042 1963     		str	r1, [r3, #48]
  61:.\Generated_Source\PSoC4/SmartIO.c ****     SmartIO_LUT_CONGIG_BASE.lutCtl[SmartIO_LUT5] = SmartIO_INIT_LUT5_CTL_CONFIG;
  79              		.loc 1 61 0
  80 0044 5A63     		str	r2, [r3, #52]
  62:.\Generated_Source\PSoC4/SmartIO.c ****     SmartIO_LUT_CONGIG_BASE.lutCtl[SmartIO_LUT6] = SmartIO_INIT_LUT6_CTL_CONFIG;
  81              		.loc 1 62 0
  82 0046 9863     		str	r0, [r3, #56]
  63:.\Generated_Source\PSoC4/SmartIO.c ****     SmartIO_LUT_CONGIG_BASE.lutCtl[SmartIO_LUT7] = SmartIO_INIT_LUT7_CTL_CONFIG;
  83              		.loc 1 63 0
  84 0048 DA63     		str	r2, [r3, #60]
  64:.\Generated_Source\PSoC4/SmartIO.c ****     /* Turn off the DU */
  65:.\Generated_Source\PSoC4/SmartIO.c ****     SmartIO_DU_SEL = SmartIO_REG_ZEROS;
  85              		.loc 1 65 0
  86 004a 0B4B     		ldr	r3, .L2+32
  87 004c 1A60     		str	r2, [r3]
  66:.\Generated_Source\PSoC4/SmartIO.c ****     SmartIO_DU_CTL = SmartIO_REG_ZEROS;
  88              		.loc 1 66 0
  89 004e 0B4B     		ldr	r3, .L2+36
  90 0050 1A60     		str	r2, [r3]
  67:.\Generated_Source\PSoC4/SmartIO.c ****     SmartIO_DATA = SmartIO_REG_ZEROS;
  91              		.loc 1 67 0
  92 0052 0B4B     		ldr	r3, .L2+40
  93 0054 1A60     		str	r2, [r3]
  68:.\Generated_Source\PSoC4/SmartIO.c **** }
  94              		.loc 1 68 0
  95              		@ sp needed
  96 0056 7047     		bx	lr
  97              	.L3:
  98              		.align	2
  99              	.L2:
 100 0058 00010540 		.word	1074069760
 101 005c 00000000 		.word	.LANCHOR0
 102 0060 EC1F0000 		.word	8172
 103 0064 10010540 		.word	1074069776
ARM GAS  C:\Users\Xwx47\AppData\Local\Temp\ccePoOms.s 			page 4


 104 0068 20010540 		.word	1074069792
 105 006c 0C0C0C00 		.word	789516
 106 0070 0D0D0D00 		.word	855309
 107 0074 11111100 		.word	1118481
 108 0078 C0010540 		.word	1074069952
 109 007c C4010540 		.word	1074069956
 110 0080 F0010540 		.word	1074070000
 111              		.cfi_endproc
 112              	.LFE0:
 113              		.size	SmartIO_Init, .-SmartIO_Init
 114              		.section	.text.SmartIO_Start,"ax",%progbits
 115              		.align	2
 116              		.global	SmartIO_Start
 117              		.code	16
 118              		.thumb_func
 119              		.type	SmartIO_Start, %function
 120              	SmartIO_Start:
 121              	.LFB1:
  69:.\Generated_Source\PSoC4/SmartIO.c **** 
  70:.\Generated_Source\PSoC4/SmartIO.c **** 
  71:.\Generated_Source\PSoC4/SmartIO.c **** /*******************************************************************************
  72:.\Generated_Source\PSoC4/SmartIO.c **** * Function Name: SmartIO_Start
  73:.\Generated_Source\PSoC4/SmartIO.c **** ****************************************************************************//**
  74:.\Generated_Source\PSoC4/SmartIO.c **** *
  75:.\Generated_Source\PSoC4/SmartIO.c **** * \brief Invokes SmartIO_Init() and SmartIO_Enable().
  76:.\Generated_Source\PSoC4/SmartIO.c **** *  
  77:.\Generated_Source\PSoC4/SmartIO.c **** * After this function call, the component is initialized to specified values
  78:.\Generated_Source\PSoC4/SmartIO.c **** * in the Configuration dialog and is then enabled.
  79:.\Generated_Source\PSoC4/SmartIO.c **** *
  80:.\Generated_Source\PSoC4/SmartIO.c **** * If calling this function after calling SmartIO_Stop(), the fabric
  81:.\Generated_Source\PSoC4/SmartIO.c **** * will set the clock configuration as specified before calling Stop().
  82:.\Generated_Source\PSoC4/SmartIO.c **** *
  83:.\Generated_Source\PSoC4/SmartIO.c **** * \globalvars
  84:.\Generated_Source\PSoC4/SmartIO.c **** *  SmartIO_initVar - used to check initial configuration, modified
  85:.\Generated_Source\PSoC4/SmartIO.c **** *  on first function call.
  86:.\Generated_Source\PSoC4/SmartIO.c **** *
  87:.\Generated_Source\PSoC4/SmartIO.c **** * \funcusage
  88:.\Generated_Source\PSoC4/SmartIO.c **** *  \snippet SmartIO_SUT.c usage_SmartIO_Start
  89:.\Generated_Source\PSoC4/SmartIO.c **** *******************************************************************************/
  90:.\Generated_Source\PSoC4/SmartIO.c **** void SmartIO_Start(void)
  91:.\Generated_Source\PSoC4/SmartIO.c **** {
 122              		.loc 1 91 0
 123              		.cfi_startproc
 124 0000 08B5     		push	{r3, lr}
 125              		.cfi_def_cfa_offset 8
 126              		.cfi_offset 3, -8
 127              		.cfi_offset 14, -4
  92:.\Generated_Source\PSoC4/SmartIO.c ****     uint32 regVal;
  93:.\Generated_Source\PSoC4/SmartIO.c ****     
  94:.\Generated_Source\PSoC4/SmartIO.c ****     if (0u == SmartIO_initVar)
 128              		.loc 1 94 0
 129 0002 0E4B     		ldr	r3, .L7
 130 0004 1B79     		ldrb	r3, [r3, #4]
 131 0006 002B     		cmp	r3, #0
 132 0008 05D1     		bne	.L5
  95:.\Generated_Source\PSoC4/SmartIO.c ****     {
  96:.\Generated_Source\PSoC4/SmartIO.c ****         SmartIO_Init();
ARM GAS  C:\Users\Xwx47\AppData\Local\Temp\ccePoOms.s 			page 5


 133              		.loc 1 96 0
 134 000a FFF7FEFF 		bl	SmartIO_Init
 135              	.LVL0:
  97:.\Generated_Source\PSoC4/SmartIO.c ****         SmartIO_initVar = 1u; /* Component was initialized */
 136              		.loc 1 97 0
 137 000e 0122     		mov	r2, #1
 138 0010 0A4B     		ldr	r3, .L7
 139 0012 1A71     		strb	r2, [r3, #4]
 140 0014 0BE0     		b	.L6
 141              	.L5:
  98:.\Generated_Source\PSoC4/SmartIO.c ****     }
  99:.\Generated_Source\PSoC4/SmartIO.c ****     else
 100:.\Generated_Source\PSoC4/SmartIO.c ****     {
 101:.\Generated_Source\PSoC4/SmartIO.c ****         /* Restore the component settings if Stop() was called */
 102:.\Generated_Source\PSoC4/SmartIO.c ****         if ((SmartIO_CTL & SmartIO_FABRIC_MASK) == 0u)
 142              		.loc 1 102 0
 143 0016 0A4B     		ldr	r3, .L7+4
 144 0018 1B68     		ldr	r3, [r3]
 145 001a 002B     		cmp	r3, #0
 146 001c 07DB     		blt	.L6
 103:.\Generated_Source\PSoC4/SmartIO.c ****         {
 104:.\Generated_Source\PSoC4/SmartIO.c ****             /* Clear the pipeline bit and clear the clock field */            
 105:.\Generated_Source\PSoC4/SmartIO.c ****             regVal = SmartIO_CTL & SmartIO_PIPELINE_DISABLE & SmartIO_CLOCK_CLEAR;
 147              		.loc 1 105 0
 148 001e 0849     		ldr	r1, .L7+4
 149 0020 0A68     		ldr	r2, [r1]
 150 0022 084B     		ldr	r3, .L7+8
 151 0024 1340     		and	r3, r2
 152              	.LVL1:
 106:.\Generated_Source\PSoC4/SmartIO.c ****             /* Restore the clock settings */
 107:.\Generated_Source\PSoC4/SmartIO.c ****             SmartIO_CTL = regVal | SmartIO_clkConfig;
 153              		.loc 1 107 0
 154 0026 054A     		ldr	r2, .L7
 155 0028 1268     		ldr	r2, [r2]
 156 002a 1343     		orr	r3, r2
 157              	.LVL2:
 158 002c 0B60     		str	r3, [r1]
 159              	.L6:
 108:.\Generated_Source\PSoC4/SmartIO.c ****         }
 109:.\Generated_Source\PSoC4/SmartIO.c ****     }
 110:.\Generated_Source\PSoC4/SmartIO.c ****     SmartIO_Enable();
 160              		.loc 1 110 0
 161 002e 044A     		ldr	r2, .L7+4
 162 0030 1368     		ldr	r3, [r2]
 163 0032 8021     		mov	r1, #128
 164 0034 0906     		lsl	r1, r1, #24
 165 0036 0B43     		orr	r3, r1
 166 0038 1360     		str	r3, [r2]
 111:.\Generated_Source\PSoC4/SmartIO.c **** }
 167              		.loc 1 111 0
 168              		@ sp needed
 169 003a 08BD     		pop	{r3, pc}
 170              	.L8:
 171              		.align	2
 172              	.L7:
 173 003c 00000000 		.word	.LANCHOR0
 174 0040 00010540 		.word	1074069760
ARM GAS  C:\Users\Xwx47\AppData\Local\Temp\ccePoOms.s 			page 6


 175 0044 FFE0FFFD 		.word	-33562369
 176              		.cfi_endproc
 177              	.LFE1:
 178              		.size	SmartIO_Start, .-SmartIO_Start
 179              		.section	.text.SmartIO_Stop,"ax",%progbits
 180              		.align	2
 181              		.global	SmartIO_Stop
 182              		.code	16
 183              		.thumb_func
 184              		.type	SmartIO_Stop, %function
 185              	SmartIO_Stop:
 186              	.LFB2:
 112:.\Generated_Source\PSoC4/SmartIO.c **** 
 113:.\Generated_Source\PSoC4/SmartIO.c **** 
 114:.\Generated_Source\PSoC4/SmartIO.c **** /*******************************************************************************
 115:.\Generated_Source\PSoC4/SmartIO.c **** * Function Name: SmartIO_Stop
 116:.\Generated_Source\PSoC4/SmartIO.c **** ****************************************************************************//**
 117:.\Generated_Source\PSoC4/SmartIO.c **** *
 118:.\Generated_Source\PSoC4/SmartIO.c **** * \brief The routing fabric is bypassed and the block is powered down.
 119:.\Generated_Source\PSoC4/SmartIO.c **** *
 120:.\Generated_Source\PSoC4/SmartIO.c **** * This function saves the clock configuration before powering down. Calling
 121:.\Generated_Source\PSoC4/SmartIO.c **** * Start() will enable the block and restore the clock setting.
 122:.\Generated_Source\PSoC4/SmartIO.c **** * 
 123:.\Generated_Source\PSoC4/SmartIO.c **** * \globalvars
 124:.\Generated_Source\PSoC4/SmartIO.c **** *  SmartIO_clkConfig - used to save the clock configuration.
 125:.\Generated_Source\PSoC4/SmartIO.c **** *
 126:.\Generated_Source\PSoC4/SmartIO.c **** * \funcusage
 127:.\Generated_Source\PSoC4/SmartIO.c **** *  \snippet SmartIO_SUT.c usage_SmartIO_Stop
 128:.\Generated_Source\PSoC4/SmartIO.c **** *******************************************************************************/
 129:.\Generated_Source\PSoC4/SmartIO.c **** void SmartIO_Stop(void)
 130:.\Generated_Source\PSoC4/SmartIO.c **** {
 187              		.loc 1 130 0
 188              		.cfi_startproc
 131:.\Generated_Source\PSoC4/SmartIO.c ****     uint32 regVal;
 132:.\Generated_Source\PSoC4/SmartIO.c ****     
 133:.\Generated_Source\PSoC4/SmartIO.c ****     /* Disable the block */
 134:.\Generated_Source\PSoC4/SmartIO.c ****     SmartIO_Disable();
 189              		.loc 1 134 0
 190 0000 084B     		ldr	r3, .L10
 191 0002 1A68     		ldr	r2, [r3]
 192 0004 5200     		lsl	r2, r2, #1
 193 0006 5208     		lsr	r2, r2, #1
 194 0008 1A60     		str	r2, [r3]
 135:.\Generated_Source\PSoC4/SmartIO.c ****     /* Save the clock setting */
 136:.\Generated_Source\PSoC4/SmartIO.c ****     SmartIO_clkConfig = SmartIO_CTL & SmartIO_CLOCK_MASK;
 195              		.loc 1 136 0
 196 000a 1968     		ldr	r1, [r3]
 197 000c F822     		mov	r2, #248
 198 000e 5201     		lsl	r2, r2, #5
 199 0010 0A40     		and	r2, r1
 200 0012 0549     		ldr	r1, .L10+4
 201 0014 0A60     		str	r2, [r1]
 137:.\Generated_Source\PSoC4/SmartIO.c ****     /* Clear the clock source */
 138:.\Generated_Source\PSoC4/SmartIO.c ****     regVal = SmartIO_CTL & SmartIO_CLOCK_CLEAR;
 202              		.loc 1 138 0
 203 0016 1968     		ldr	r1, [r3]
 204 0018 044A     		ldr	r2, .L10+8
ARM GAS  C:\Users\Xwx47\AppData\Local\Temp\ccePoOms.s 			page 7


 205 001a 0A40     		and	r2, r1
 206              	.LVL3:
 139:.\Generated_Source\PSoC4/SmartIO.c ****     /* Enable the pipeline and set the clock source to const zero */
 140:.\Generated_Source\PSoC4/SmartIO.c ****     SmartIO_CTL = regVal | SmartIO_PIPELINE_ENABLE | SmartIO_CLOCK_CONST_ZERO;
 207              		.loc 1 140 0
 208 001c 0449     		ldr	r1, .L10+12
 209 001e 0A43     		orr	r2, r1
 210              	.LVL4:
 211 0020 1A60     		str	r2, [r3]
 141:.\Generated_Source\PSoC4/SmartIO.c **** }
 212              		.loc 1 141 0
 213              		@ sp needed
 214 0022 7047     		bx	lr
 215              	.L11:
 216              		.align	2
 217              	.L10:
 218 0024 00010540 		.word	1074069760
 219 0028 00000000 		.word	.LANCHOR0
 220 002c FFE0FFFF 		.word	-7937
 221 0030 00140002 		.word	33559552
 222              		.cfi_endproc
 223              	.LFE2:
 224              		.size	SmartIO_Stop, .-SmartIO_Stop
 225              		.section	.text.SmartIO_SetBypass,"ax",%progbits
 226              		.align	2
 227              		.global	SmartIO_SetBypass
 228              		.code	16
 229              		.thumb_func
 230              		.type	SmartIO_SetBypass, %function
 231              	SmartIO_SetBypass:
 232              	.LFB3:
 142:.\Generated_Source\PSoC4/SmartIO.c **** 
 143:.\Generated_Source\PSoC4/SmartIO.c **** 
 144:.\Generated_Source\PSoC4/SmartIO.c **** /*******************************************************************************
 145:.\Generated_Source\PSoC4/SmartIO.c **** * Function Name: SmartIO_SetBypass
 146:.\Generated_Source\PSoC4/SmartIO.c **** ****************************************************************************//**
 147:.\Generated_Source\PSoC4/SmartIO.c **** *
 148:.\Generated_Source\PSoC4/SmartIO.c **** * \brief Bypasses channels on a bit by bit basis. 
 149:.\Generated_Source\PSoC4/SmartIO.c **** *
 150:.\Generated_Source\PSoC4/SmartIO.c **** * Bypassed channels behave as if the SmartIO component was not present for 
 151:.\Generated_Source\PSoC4/SmartIO.c **** * those particular channels. 
 152:.\Generated_Source\PSoC4/SmartIO.c **** *  
 153:.\Generated_Source\PSoC4/SmartIO.c **** * <b>Note</b> This function impacts all channels on the port. It will write
 154:.\Generated_Source\PSoC4/SmartIO.c **** * over the bypass configuration of all the channels. 
 155:.\Generated_Source\PSoC4/SmartIO.c **** *
 156:.\Generated_Source\PSoC4/SmartIO.c **** * \param portChannel
 157:.\Generated_Source\PSoC4/SmartIO.c **** *  The channel location to be bypassed on the port. If the bit value is 0, 
 158:.\Generated_Source\PSoC4/SmartIO.c **** *  the channel is not bypassed; if the bit value is 1, the channel is bypassed.
 159:.\Generated_Source\PSoC4/SmartIO.c **** *  Valid options are documented in \ref channelConst. These should be ORed
 160:.\Generated_Source\PSoC4/SmartIO.c **** *  to configure multiple bypass channels.
 161:.\Generated_Source\PSoC4/SmartIO.c **** * 
 162:.\Generated_Source\PSoC4/SmartIO.c **** * \sideeffect
 163:.\Generated_Source\PSoC4/SmartIO.c **** *  This function disables the block for reconfiguration. During this time,
 164:.\Generated_Source\PSoC4/SmartIO.c **** *  all signals on the port will be bypassed. All peripheral and gpio signals
 165:.\Generated_Source\PSoC4/SmartIO.c **** *  must be stopped or properly handled to account for the bypass state.
 166:.\Generated_Source\PSoC4/SmartIO.c **** *
 167:.\Generated_Source\PSoC4/SmartIO.c **** * \funcusage
ARM GAS  C:\Users\Xwx47\AppData\Local\Temp\ccePoOms.s 			page 8


 168:.\Generated_Source\PSoC4/SmartIO.c **** *  \snippet SmartIO_SUT.c usage_SmartIO_SetBypass
 169:.\Generated_Source\PSoC4/SmartIO.c **** *******************************************************************************/
 170:.\Generated_Source\PSoC4/SmartIO.c **** void SmartIO_SetBypass(uint32 portChannel)
 171:.\Generated_Source\PSoC4/SmartIO.c **** {   
 233              		.loc 1 171 0
 234              		.cfi_startproc
 235              	.LVL5:
 172:.\Generated_Source\PSoC4/SmartIO.c ****     uint32 regVal;
 173:.\Generated_Source\PSoC4/SmartIO.c ****     
 174:.\Generated_Source\PSoC4/SmartIO.c ****     /* Must disable the block before configuring */
 175:.\Generated_Source\PSoC4/SmartIO.c ****     SmartIO_Disable();
 236              		.loc 1 175 0
 237 0000 084B     		ldr	r3, .L13
 238 0002 1A68     		ldr	r2, [r3]
 239 0004 5200     		lsl	r2, r2, #1
 240 0006 5208     		lsr	r2, r2, #1
 241 0008 1A60     		str	r2, [r3]
 176:.\Generated_Source\PSoC4/SmartIO.c ****     /* Configure the bypass settings of the SmartIO pins */
 177:.\Generated_Source\PSoC4/SmartIO.c ****     regVal = SmartIO_CTL & SmartIO_BYPASS_CLEAR;
 242              		.loc 1 177 0
 243 000a 1A68     		ldr	r2, [r3]
 244 000c FF21     		mov	r1, #255
 245 000e 8A43     		bic	r2, r1
 246              	.LVL6:
 178:.\Generated_Source\PSoC4/SmartIO.c ****     SmartIO_CTL = regVal | (((uint32)(portChannel << CYFLD_PRGIO_PRT_BYPASS__OFFSET))
 179:.\Generated_Source\PSoC4/SmartIO.c ****                                     & SmartIO_BYPASS_MASK);
 247              		.loc 1 179 0
 248 0010 0840     		and	r0, r1
 249              	.LVL7:
 178:.\Generated_Source\PSoC4/SmartIO.c ****     SmartIO_CTL = regVal | (((uint32)(portChannel << CYFLD_PRGIO_PRT_BYPASS__OFFSET))
 250              		.loc 1 178 0
 251 0012 1043     		orr	r0, r2
 252 0014 1860     		str	r0, [r3]
 180:.\Generated_Source\PSoC4/SmartIO.c ****     /* Re-enable the block */
 181:.\Generated_Source\PSoC4/SmartIO.c ****     SmartIO_Enable();
 253              		.loc 1 181 0
 254 0016 1A68     		ldr	r2, [r3]
 255              	.LVL8:
 256 0018 8021     		mov	r1, #128
 257 001a 0906     		lsl	r1, r1, #24
 258 001c 0A43     		orr	r2, r1
 259 001e 1A60     		str	r2, [r3]
 182:.\Generated_Source\PSoC4/SmartIO.c **** }
 260              		.loc 1 182 0
 261              		@ sp needed
 262 0020 7047     		bx	lr
 263              	.L14:
 264 0022 C046     		.align	2
 265              	.L13:
 266 0024 00010540 		.word	1074069760
 267              		.cfi_endproc
 268              	.LFE3:
 269              		.size	SmartIO_SetBypass, .-SmartIO_SetBypass
 270              		.section	.text.SmartIO_ClockSelect,"ax",%progbits
 271              		.align	2
 272              		.global	SmartIO_ClockSelect
 273              		.code	16
ARM GAS  C:\Users\Xwx47\AppData\Local\Temp\ccePoOms.s 			page 9


 274              		.thumb_func
 275              		.type	SmartIO_ClockSelect, %function
 276              	SmartIO_ClockSelect:
 277              	.LFB4:
 183:.\Generated_Source\PSoC4/SmartIO.c **** 
 184:.\Generated_Source\PSoC4/SmartIO.c **** 
 185:.\Generated_Source\PSoC4/SmartIO.c **** /*******************************************************************************
 186:.\Generated_Source\PSoC4/SmartIO.c **** * Function Name: SmartIO_ClockSelect
 187:.\Generated_Source\PSoC4/SmartIO.c **** ****************************************************************************//**
 188:.\Generated_Source\PSoC4/SmartIO.c **** *
 189:.\Generated_Source\PSoC4/SmartIO.c **** * \brief Selects the component clock source.
 190:.\Generated_Source\PSoC4/SmartIO.c **** *
 191:.\Generated_Source\PSoC4/SmartIO.c **** * The clock selection impacts the reset behavior of the component and low power
 192:.\Generated_Source\PSoC4/SmartIO.c **** * operation. Refer to the Functional Description section of the component
 193:.\Generated_Source\PSoC4/SmartIO.c **** * datasheet for more information.
 194:.\Generated_Source\PSoC4/SmartIO.c **** *
 195:.\Generated_Source\PSoC4/SmartIO.c **** * \param clockSrc
 196:.\Generated_Source\PSoC4/SmartIO.c **** *  The component clock source. Valid options are documented in \ref clockConst.
 197:.\Generated_Source\PSoC4/SmartIO.c **** * 
 198:.\Generated_Source\PSoC4/SmartIO.c **** * \sideeffect
 199:.\Generated_Source\PSoC4/SmartIO.c **** *  This function disables the block for reconfiguration. During this time,
 200:.\Generated_Source\PSoC4/SmartIO.c **** *  all signals on the port will be bypassed. All peripheral and gpio signals
 201:.\Generated_Source\PSoC4/SmartIO.c **** *  must be stopped or properly handled to account for the bypass state.
 202:.\Generated_Source\PSoC4/SmartIO.c **** *
 203:.\Generated_Source\PSoC4/SmartIO.c **** * \funcusage
 204:.\Generated_Source\PSoC4/SmartIO.c **** *  \snippet SmartIO_SUT.c usage_SmartIO_ClockSelect
 205:.\Generated_Source\PSoC4/SmartIO.c **** *******************************************************************************/
 206:.\Generated_Source\PSoC4/SmartIO.c **** void SmartIO_ClockSelect(uint32 clockSrc)
 207:.\Generated_Source\PSoC4/SmartIO.c **** {
 278              		.loc 1 207 0
 279              		.cfi_startproc
 280              	.LVL9:
 208:.\Generated_Source\PSoC4/SmartIO.c ****     uint32 regVal;
 209:.\Generated_Source\PSoC4/SmartIO.c ****     
 210:.\Generated_Source\PSoC4/SmartIO.c ****     /* Must disable the block before configuring */
 211:.\Generated_Source\PSoC4/SmartIO.c ****     SmartIO_Disable();
 281              		.loc 1 211 0
 282 0000 094B     		ldr	r3, .L16
 283 0002 1A68     		ldr	r2, [r3]
 284 0004 5200     		lsl	r2, r2, #1
 285 0006 5208     		lsr	r2, r2, #1
 286 0008 1A60     		str	r2, [r3]
 212:.\Generated_Source\PSoC4/SmartIO.c ****     /* Configure the clock source */
 213:.\Generated_Source\PSoC4/SmartIO.c ****     regVal = SmartIO_CTL & SmartIO_CLOCK_CLEAR;
 287              		.loc 1 213 0
 288 000a 1968     		ldr	r1, [r3]
 289 000c 074A     		ldr	r2, .L16+4
 290 000e 0A40     		and	r2, r1
 291              	.LVL10:
 214:.\Generated_Source\PSoC4/SmartIO.c ****     SmartIO_CTL = regVal | (((uint32)(clockSrc << CYFLD_PRGIO_PRT_CLOCK_SRC__OFFSET) 
 292              		.loc 1 214 0
 293 0010 0002     		lsl	r0, r0, #8
 294              	.LVL11:
 215:.\Generated_Source\PSoC4/SmartIO.c ****                                     & SmartIO_CLOCK_MASK));
 295              		.loc 1 215 0
 296 0012 F821     		mov	r1, #248
 297 0014 4901     		lsl	r1, r1, #5
ARM GAS  C:\Users\Xwx47\AppData\Local\Temp\ccePoOms.s 			page 10


 298 0016 0840     		and	r0, r1
 214:.\Generated_Source\PSoC4/SmartIO.c ****     SmartIO_CTL = regVal | (((uint32)(clockSrc << CYFLD_PRGIO_PRT_CLOCK_SRC__OFFSET) 
 299              		.loc 1 214 0
 300 0018 1043     		orr	r0, r2
 301 001a 1860     		str	r0, [r3]
 216:.\Generated_Source\PSoC4/SmartIO.c ****     /* Re-enable the block */
 217:.\Generated_Source\PSoC4/SmartIO.c ****     SmartIO_Enable();
 302              		.loc 1 217 0
 303 001c 1A68     		ldr	r2, [r3]
 304              	.LVL12:
 305 001e 8021     		mov	r1, #128
 306 0020 0906     		lsl	r1, r1, #24
 307 0022 0A43     		orr	r2, r1
 308 0024 1A60     		str	r2, [r3]
 218:.\Generated_Source\PSoC4/SmartIO.c **** }
 309              		.loc 1 218 0
 310              		@ sp needed
 311 0026 7047     		bx	lr
 312              	.L17:
 313              		.align	2
 314              	.L16:
 315 0028 00010540 		.word	1074069760
 316 002c FFE0FFFF 		.word	-7937
 317              		.cfi_endproc
 318              	.LFE4:
 319              		.size	SmartIO_ClockSelect, .-SmartIO_ClockSelect
 320              		.section	.text.SmartIO_HoldOverride,"ax",%progbits
 321              		.align	2
 322              		.global	SmartIO_HoldOverride
 323              		.code	16
 324              		.thumb_func
 325              		.type	SmartIO_HoldOverride, %function
 326              	SmartIO_HoldOverride:
 327              	.LFB5:
 219:.\Generated_Source\PSoC4/SmartIO.c **** 
 220:.\Generated_Source\PSoC4/SmartIO.c **** 
 221:.\Generated_Source\PSoC4/SmartIO.c **** /*******************************************************************************
 222:.\Generated_Source\PSoC4/SmartIO.c **** * Function Name: SmartIO_HoldOverride
 223:.\Generated_Source\PSoC4/SmartIO.c **** ****************************************************************************//**
 224:.\Generated_Source\PSoC4/SmartIO.c **** *
 225:.\Generated_Source\PSoC4/SmartIO.c **** * \brief Controls the port's chip hibernate mode override. 
 226:.\Generated_Source\PSoC4/SmartIO.c **** *
 227:.\Generated_Source\PSoC4/SmartIO.c **** * This function should be used when the block is desired to be operational
 228:.\Generated_Source\PSoC4/SmartIO.c **** * during chip deep-sleep or hibernate mode. The override functionality allows 
 229:.\Generated_Source\PSoC4/SmartIO.c **** * the port with SmartIO component to be operational during these modes. When
 230:.\Generated_Source\PSoC4/SmartIO.c **** * in chip active/sleep modes, the hold override functionality should be disabled.
 231:.\Generated_Source\PSoC4/SmartIO.c **** *
 232:.\Generated_Source\PSoC4/SmartIO.c **** * \param ovCtrl
 233:.\Generated_Source\PSoC4/SmartIO.c **** *  Hold override control. Valid options are documented in \ref hldOvrConst.
 234:.\Generated_Source\PSoC4/SmartIO.c **** * 
 235:.\Generated_Source\PSoC4/SmartIO.c **** * \sideeffect
 236:.\Generated_Source\PSoC4/SmartIO.c **** *  This function disables the block for reconfiguration. During this time,
 237:.\Generated_Source\PSoC4/SmartIO.c **** *  all signals on the port will be bypassed. All peripheral and gpio signals
 238:.\Generated_Source\PSoC4/SmartIO.c **** *  must be stopped or properly handled to account for the bypass state.
 239:.\Generated_Source\PSoC4/SmartIO.c **** *
 240:.\Generated_Source\PSoC4/SmartIO.c **** * \funcusage
 241:.\Generated_Source\PSoC4/SmartIO.c **** *  \snippet SmartIO_SUT.c usage_SmartIO_HoldOverride
ARM GAS  C:\Users\Xwx47\AppData\Local\Temp\ccePoOms.s 			page 11


 242:.\Generated_Source\PSoC4/SmartIO.c **** *******************************************************************************/
 243:.\Generated_Source\PSoC4/SmartIO.c **** void SmartIO_HoldOverride(uint32 ovCtrl)
 244:.\Generated_Source\PSoC4/SmartIO.c **** {
 328              		.loc 1 244 0
 329              		.cfi_startproc
 330              	.LVL13:
 245:.\Generated_Source\PSoC4/SmartIO.c ****     /* Must disable the block before configuring */
 246:.\Generated_Source\PSoC4/SmartIO.c ****     SmartIO_Disable();
 331              		.loc 1 246 0
 332 0000 0C4A     		ldr	r2, .L21
 333 0002 1368     		ldr	r3, [r2]
 334 0004 5B00     		lsl	r3, r3, #1
 335 0006 5B08     		lsr	r3, r3, #1
 336 0008 1360     		str	r3, [r2]
 247:.\Generated_Source\PSoC4/SmartIO.c ****     /* Set hold override mode */
 248:.\Generated_Source\PSoC4/SmartIO.c ****     if (ovCtrl == SmartIO_OVCTRL_ENABLE)
 337              		.loc 1 248 0
 338 000a 0128     		cmp	r0, #1
 339 000c 05D1     		bne	.L19
 249:.\Generated_Source\PSoC4/SmartIO.c ****     {
 250:.\Generated_Source\PSoC4/SmartIO.c ****         SmartIO_CTL |= SmartIO_HLD_OVR_SMARTIO;
 340              		.loc 1 250 0
 341 000e 1368     		ldr	r3, [r2]
 342 0010 8021     		mov	r1, #128
 343 0012 4904     		lsl	r1, r1, #17
 344 0014 0B43     		orr	r3, r1
 345 0016 1360     		str	r3, [r2]
 346 0018 04E0     		b	.L20
 347              	.L19:
 251:.\Generated_Source\PSoC4/SmartIO.c ****     }    
 252:.\Generated_Source\PSoC4/SmartIO.c ****     else
 253:.\Generated_Source\PSoC4/SmartIO.c ****     {
 254:.\Generated_Source\PSoC4/SmartIO.c ****         SmartIO_CTL &= SmartIO_HLD_OVR_HSIOM;
 348              		.loc 1 254 0
 349 001a 064A     		ldr	r2, .L21
 350 001c 1168     		ldr	r1, [r2]
 351 001e 064B     		ldr	r3, .L21+4
 352 0020 0B40     		and	r3, r1
 353 0022 1360     		str	r3, [r2]
 354              	.L20:
 255:.\Generated_Source\PSoC4/SmartIO.c ****     }
 256:.\Generated_Source\PSoC4/SmartIO.c ****     /* Re-enable the block */
 257:.\Generated_Source\PSoC4/SmartIO.c ****     SmartIO_Enable();
 355              		.loc 1 257 0
 356 0024 034A     		ldr	r2, .L21
 357 0026 1368     		ldr	r3, [r2]
 358 0028 8021     		mov	r1, #128
 359 002a 0906     		lsl	r1, r1, #24
 360 002c 0B43     		orr	r3, r1
 361 002e 1360     		str	r3, [r2]
 258:.\Generated_Source\PSoC4/SmartIO.c **** }
 362              		.loc 1 258 0
 363              		@ sp needed
 364 0030 7047     		bx	lr
 365              	.L22:
 366 0032 C046     		.align	2
 367              	.L21:
ARM GAS  C:\Users\Xwx47\AppData\Local\Temp\ccePoOms.s 			page 12


 368 0034 00010540 		.word	1074069760
 369 0038 FFFFFFFE 		.word	-16777217
 370              		.cfi_endproc
 371              	.LFE5:
 372              		.size	SmartIO_HoldOverride, .-SmartIO_HoldOverride
 373              		.section	.text.SmartIO_IoSyncMode,"ax",%progbits
 374              		.align	2
 375              		.global	SmartIO_IoSyncMode
 376              		.code	16
 377              		.thumb_func
 378              		.type	SmartIO_IoSyncMode, %function
 379              	SmartIO_IoSyncMode:
 380              	.LFB6:
 259:.\Generated_Source\PSoC4/SmartIO.c **** 
 260:.\Generated_Source\PSoC4/SmartIO.c **** 
 261:.\Generated_Source\PSoC4/SmartIO.c **** /*******************************************************************************
 262:.\Generated_Source\PSoC4/SmartIO.c **** * Function Name: SmartIO_IoSyncMode
 263:.\Generated_Source\PSoC4/SmartIO.c **** ****************************************************************************//**
 264:.\Generated_Source\PSoC4/SmartIO.c **** *
 265:.\Generated_Source\PSoC4/SmartIO.c **** * \brief Controls synchronization of signals coming from I/O Pin. 
 266:.\Generated_Source\PSoC4/SmartIO.c **** *
 267:.\Generated_Source\PSoC4/SmartIO.c **** * The synchronization is performed using the component clock. Synchronization 
 268:.\Generated_Source\PSoC4/SmartIO.c **** * should not be used if the component is configured to operate in asynchronous
 269:.\Generated_Source\PSoC4/SmartIO.c **** * mode.
 270:.\Generated_Source\PSoC4/SmartIO.c **** *
 271:.\Generated_Source\PSoC4/SmartIO.c **** * <b>Note</b> This function impacts all gpio terminals on the port. It will 
 272:.\Generated_Source\PSoC4/SmartIO.c **** * write over the synchronization configuration of all the gpio terminals. 
 273:.\Generated_Source\PSoC4/SmartIO.c **** *
 274:.\Generated_Source\PSoC4/SmartIO.c **** * \param portTerm
 275:.\Generated_Source\PSoC4/SmartIO.c **** *  The terminal location on the port. If the bit value is 0, the terminal is
 276:.\Generated_Source\PSoC4/SmartIO.c **** *  not synchronized; if the bit value is 1, the terminal is synchronized.
 277:.\Generated_Source\PSoC4/SmartIO.c **** *  Valid options are documented in \ref termConst. These should be ORed to 
 278:.\Generated_Source\PSoC4/SmartIO.c **** *  configure multiple terminals.
 279:.\Generated_Source\PSoC4/SmartIO.c **** * 
 280:.\Generated_Source\PSoC4/SmartIO.c **** * \sideeffect
 281:.\Generated_Source\PSoC4/SmartIO.c **** *  This function disables the block for reconfiguration. During this time,
 282:.\Generated_Source\PSoC4/SmartIO.c **** *  all signals on the port will be bypassed. All peripheral and gpio signals
 283:.\Generated_Source\PSoC4/SmartIO.c **** *  must be stopped or properly handled to account for the bypass state.
 284:.\Generated_Source\PSoC4/SmartIO.c **** *
 285:.\Generated_Source\PSoC4/SmartIO.c **** * \funcusage
 286:.\Generated_Source\PSoC4/SmartIO.c **** *  \snippet SmartIO_SUT.c usage_SmartIO_IoSyncMode
 287:.\Generated_Source\PSoC4/SmartIO.c **** *******************************************************************************/
 288:.\Generated_Source\PSoC4/SmartIO.c **** void SmartIO_IoSyncMode(uint32 portTerm)
 289:.\Generated_Source\PSoC4/SmartIO.c **** {
 381              		.loc 1 289 0
 382              		.cfi_startproc
 383              	.LVL14:
 384 0000 10B5     		push	{r4, lr}
 385              		.cfi_def_cfa_offset 8
 386              		.cfi_offset 4, -8
 387              		.cfi_offset 14, -4
 290:.\Generated_Source\PSoC4/SmartIO.c ****     uint32 regVal;
 291:.\Generated_Source\PSoC4/SmartIO.c ****     
 292:.\Generated_Source\PSoC4/SmartIO.c ****     /* Must disable the block before configuring */
 293:.\Generated_Source\PSoC4/SmartIO.c ****     SmartIO_Disable();
 388              		.loc 1 293 0
 389 0002 094A     		ldr	r2, .L24
ARM GAS  C:\Users\Xwx47\AppData\Local\Temp\ccePoOms.s 			page 13


 390 0004 1368     		ldr	r3, [r2]
 391 0006 5B00     		lsl	r3, r3, #1
 392 0008 5B08     		lsr	r3, r3, #1
 393 000a 1360     		str	r3, [r2]
 294:.\Generated_Source\PSoC4/SmartIO.c ****     /* Configure the IO synchronization */
 295:.\Generated_Source\PSoC4/SmartIO.c ****     regVal = SmartIO_SYNC_CTL & SmartIO_IO_SYNC_CLEAR;
 394              		.loc 1 295 0
 395 000c 0749     		ldr	r1, .L24+4
 396 000e 0B68     		ldr	r3, [r1]
 397 0010 FF24     		mov	r4, #255
 398 0012 A343     		bic	r3, r4
 399              	.LVL15:
 296:.\Generated_Source\PSoC4/SmartIO.c ****     SmartIO_SYNC_CTL = regVal | (((uint32)(portTerm << CYFLD_PRGIO_PRT_IO_SYNC_EN__OFFSET))
 297:.\Generated_Source\PSoC4/SmartIO.c ****                                          & SmartIO_IO_SYNC_MASK);
 400              		.loc 1 297 0
 401 0014 2040     		and	r0, r4
 402              	.LVL16:
 296:.\Generated_Source\PSoC4/SmartIO.c ****     SmartIO_SYNC_CTL = regVal | (((uint32)(portTerm << CYFLD_PRGIO_PRT_IO_SYNC_EN__OFFSET))
 403              		.loc 1 296 0
 404 0016 1843     		orr	r0, r3
 405 0018 0860     		str	r0, [r1]
 298:.\Generated_Source\PSoC4/SmartIO.c ****     /* Re-enable the block */
 299:.\Generated_Source\PSoC4/SmartIO.c ****     SmartIO_Enable();
 406              		.loc 1 299 0
 407 001a 1368     		ldr	r3, [r2]
 408              	.LVL17:
 409 001c 8021     		mov	r1, #128
 410 001e 0906     		lsl	r1, r1, #24
 411 0020 0B43     		orr	r3, r1
 412 0022 1360     		str	r3, [r2]
 300:.\Generated_Source\PSoC4/SmartIO.c **** }
 413              		.loc 1 300 0
 414              		@ sp needed
 415 0024 10BD     		pop	{r4, pc}
 416              	.L25:
 417 0026 C046     		.align	2
 418              	.L24:
 419 0028 00010540 		.word	1074069760
 420 002c 10010540 		.word	1074069776
 421              		.cfi_endproc
 422              	.LFE6:
 423              		.size	SmartIO_IoSyncMode, .-SmartIO_IoSyncMode
 424              		.section	.text.SmartIO_ChipSyncMode,"ax",%progbits
 425              		.align	2
 426              		.global	SmartIO_ChipSyncMode
 427              		.code	16
 428              		.thumb_func
 429              		.type	SmartIO_ChipSyncMode, %function
 430              	SmartIO_ChipSyncMode:
 431              	.LFB7:
 301:.\Generated_Source\PSoC4/SmartIO.c **** 
 302:.\Generated_Source\PSoC4/SmartIO.c **** 
 303:.\Generated_Source\PSoC4/SmartIO.c **** /*******************************************************************************
 304:.\Generated_Source\PSoC4/SmartIO.c **** * Function Name: SmartIO_ChipSyncMode
 305:.\Generated_Source\PSoC4/SmartIO.c **** ****************************************************************************//**
 306:.\Generated_Source\PSoC4/SmartIO.c **** *
 307:.\Generated_Source\PSoC4/SmartIO.c **** * \brief Controls synchronization of signals coming from chip to the component. 
ARM GAS  C:\Users\Xwx47\AppData\Local\Temp\ccePoOms.s 			page 14


 308:.\Generated_Source\PSoC4/SmartIO.c **** *
 309:.\Generated_Source\PSoC4/SmartIO.c **** * The synchronization is performed using the component clock. Synchronization 
 310:.\Generated_Source\PSoC4/SmartIO.c **** * should not be used if the component is configured to operate in asynchronous
 311:.\Generated_Source\PSoC4/SmartIO.c **** * mode.
 312:.\Generated_Source\PSoC4/SmartIO.c **** *
 313:.\Generated_Source\PSoC4/SmartIO.c **** * <b>Note</b> This function impacts all data terminals on the port. It will 
 314:.\Generated_Source\PSoC4/SmartIO.c **** * write over the synchronization configuration of all the data terminals. 
 315:.\Generated_Source\PSoC4/SmartIO.c **** *
 316:.\Generated_Source\PSoC4/SmartIO.c **** * \param portTerm
 317:.\Generated_Source\PSoC4/SmartIO.c **** *  The terminal location on the port. If the bit value is 0, the terminal is
 318:.\Generated_Source\PSoC4/SmartIO.c **** *  not synchronized; if the bit value is 1, the terminal is synchronized.
 319:.\Generated_Source\PSoC4/SmartIO.c **** *  Valid options are documented in \ref termConst. These should be ORed to 
 320:.\Generated_Source\PSoC4/SmartIO.c **** *  configure multiple terminals.
 321:.\Generated_Source\PSoC4/SmartIO.c **** * 
 322:.\Generated_Source\PSoC4/SmartIO.c **** * \sideeffect
 323:.\Generated_Source\PSoC4/SmartIO.c **** *  This function disables the block for reconfiguration. During this time,
 324:.\Generated_Source\PSoC4/SmartIO.c **** *  all signals on the port will be bypassed. All peripheral and gpio signals
 325:.\Generated_Source\PSoC4/SmartIO.c **** *  must be stopped or properly handled to account for the bypass state.
 326:.\Generated_Source\PSoC4/SmartIO.c **** *
 327:.\Generated_Source\PSoC4/SmartIO.c **** * \funcusage
 328:.\Generated_Source\PSoC4/SmartIO.c **** *  \snippet SmartIO_SUT.c usage_SmartIO_ChipSyncMode
 329:.\Generated_Source\PSoC4/SmartIO.c **** *******************************************************************************/
 330:.\Generated_Source\PSoC4/SmartIO.c **** void SmartIO_ChipSyncMode(uint32 portTerm)
 331:.\Generated_Source\PSoC4/SmartIO.c **** {
 432              		.loc 1 331 0
 433              		.cfi_startproc
 434              	.LVL18:
 435 0000 10B5     		push	{r4, lr}
 436              		.cfi_def_cfa_offset 8
 437              		.cfi_offset 4, -8
 438              		.cfi_offset 14, -4
 332:.\Generated_Source\PSoC4/SmartIO.c ****     uint32 regVal;
 333:.\Generated_Source\PSoC4/SmartIO.c ****     
 334:.\Generated_Source\PSoC4/SmartIO.c ****     /* Must disable the block before configuring */
 335:.\Generated_Source\PSoC4/SmartIO.c ****     SmartIO_Disable();
 439              		.loc 1 335 0
 440 0002 094A     		ldr	r2, .L27
 441 0004 1368     		ldr	r3, [r2]
 442 0006 5B00     		lsl	r3, r3, #1
 443 0008 5B08     		lsr	r3, r3, #1
 444 000a 1360     		str	r3, [r2]
 336:.\Generated_Source\PSoC4/SmartIO.c ****     /* Configure the Chip data synchronization */
 337:.\Generated_Source\PSoC4/SmartIO.c ****     regVal = SmartIO_SYNC_CTL & SmartIO_DATA_SYNC_CLEAR;
 445              		.loc 1 337 0
 446 000c 0749     		ldr	r1, .L27+4
 447 000e 0C68     		ldr	r4, [r1]
 448 0010 074B     		ldr	r3, .L27+8
 449 0012 2340     		and	r3, r4
 450              	.LVL19:
 338:.\Generated_Source\PSoC4/SmartIO.c ****     SmartIO_SYNC_CTL = regVal | (((uint32)(portTerm << CYFLD_PRGIO_PRT_CHIP_SYNC_EN__OFFSET))
 339:.\Generated_Source\PSoC4/SmartIO.c ****                                         & SmartIO_DATA_SYNC_MASK);
 451              		.loc 1 339 0
 452 0014 0006     		lsl	r0, r0, #24
 453              	.LVL20:
 454 0016 000C     		lsr	r0, r0, #16
 338:.\Generated_Source\PSoC4/SmartIO.c ****     SmartIO_SYNC_CTL = regVal | (((uint32)(portTerm << CYFLD_PRGIO_PRT_CHIP_SYNC_EN__OFFSET))
 455              		.loc 1 338 0
ARM GAS  C:\Users\Xwx47\AppData\Local\Temp\ccePoOms.s 			page 15


 456 0018 1843     		orr	r0, r3
 457 001a 0860     		str	r0, [r1]
 340:.\Generated_Source\PSoC4/SmartIO.c ****     /* Re-enable the block */
 341:.\Generated_Source\PSoC4/SmartIO.c ****     SmartIO_Enable();
 458              		.loc 1 341 0
 459 001c 1368     		ldr	r3, [r2]
 460              	.LVL21:
 461 001e 8021     		mov	r1, #128
 462 0020 0906     		lsl	r1, r1, #24
 463 0022 0B43     		orr	r3, r1
 464 0024 1360     		str	r3, [r2]
 342:.\Generated_Source\PSoC4/SmartIO.c **** }
 465              		.loc 1 342 0
 466              		@ sp needed
 467              	.LVL22:
 468 0026 10BD     		pop	{r4, pc}
 469              	.L28:
 470              		.align	2
 471              	.L27:
 472 0028 00010540 		.word	1074069760
 473 002c 10010540 		.word	1074069776
 474 0030 FF00FFFF 		.word	-65281
 475              		.cfi_endproc
 476              	.LFE7:
 477              		.size	SmartIO_ChipSyncMode, .-SmartIO_ChipSyncMode
 478              		.section	.text.SmartIO_LUT_SelectInputs,"ax",%progbits
 479              		.align	2
 480              		.global	SmartIO_LUT_SelectInputs
 481              		.code	16
 482              		.thumb_func
 483              		.type	SmartIO_LUT_SelectInputs, %function
 484              	SmartIO_LUT_SelectInputs:
 485              	.LFB8:
 343:.\Generated_Source\PSoC4/SmartIO.c **** 
 344:.\Generated_Source\PSoC4/SmartIO.c **** 
 345:.\Generated_Source\PSoC4/SmartIO.c **** /*******************************************************************************
 346:.\Generated_Source\PSoC4/SmartIO.c **** * Function Name: SmartIO_LUT_SelectInputs
 347:.\Generated_Source\PSoC4/SmartIO.c **** ****************************************************************************//**
 348:.\Generated_Source\PSoC4/SmartIO.c **** *
 349:.\Generated_Source\PSoC4/SmartIO.c **** * \brief This function is used to select individual inputs to the specified LUT. 
 350:.\Generated_Source\PSoC4/SmartIO.c **** *
 351:.\Generated_Source\PSoC4/SmartIO.c **** * This function can be used to configure multiple LUTs with the same input
 352:.\Generated_Source\PSoC4/SmartIO.c **** * configuration.
 353:.\Generated_Source\PSoC4/SmartIO.c **** * 
 354:.\Generated_Source\PSoC4/SmartIO.c **** * <b>Note</b> The selections are different for the upper and lower nibbles.
 355:.\Generated_Source\PSoC4/SmartIO.c **** * See the LUT input parameters and Functional Description section in the
 356:.\Generated_Source\PSoC4/SmartIO.c **** * component datasheet for more information.
 357:.\Generated_Source\PSoC4/SmartIO.c **** *
 358:.\Generated_Source\PSoC4/SmartIO.c **** * \param lutNum
 359:.\Generated_Source\PSoC4/SmartIO.c **** *  LUT number. Valid options are documented in \ref lutNumConst.
 360:.\Generated_Source\PSoC4/SmartIO.c **** *
 361:.\Generated_Source\PSoC4/SmartIO.c **** * \param inputNum
 362:.\Generated_Source\PSoC4/SmartIO.c **** *  The input number (input0, input1, input2). Valid options are documented 
 363:.\Generated_Source\PSoC4/SmartIO.c **** *  in \ref inputNumConst. Note that LUT input0 does not accept LUT0 output as
 364:.\Generated_Source\PSoC4/SmartIO.c **** *  an input.
 365:.\Generated_Source\PSoC4/SmartIO.c **** *
 366:.\Generated_Source\PSoC4/SmartIO.c **** * \param inputSrc
ARM GAS  C:\Users\Xwx47\AppData\Local\Temp\ccePoOms.s 			page 16


 367:.\Generated_Source\PSoC4/SmartIO.c **** *  The source of the LUT input. Valid options are documented in
 368:.\Generated_Source\PSoC4/SmartIO.c **** *  \ref inputSrcConst.
 369:.\Generated_Source\PSoC4/SmartIO.c **** *
 370:.\Generated_Source\PSoC4/SmartIO.c **** * \return 
 371:.\Generated_Source\PSoC4/SmartIO.c **** *  Status of the LUT input selection.
 372:.\Generated_Source\PSoC4/SmartIO.c **** *   Status          | Description
 373:.\Generated_Source\PSoC4/SmartIO.c **** *   ----------------|--------------------
 374:.\Generated_Source\PSoC4/SmartIO.c **** *   CYRET_SUCCESS   | Write successful
 375:.\Generated_Source\PSoC4/SmartIO.c **** *   CYRET_BAD_PARAM | Invalid parameter
 376:.\Generated_Source\PSoC4/SmartIO.c **** * 
 377:.\Generated_Source\PSoC4/SmartIO.c **** * \sideeffect
 378:.\Generated_Source\PSoC4/SmartIO.c **** *  This function disables the block for reconfiguration. During this time,
 379:.\Generated_Source\PSoC4/SmartIO.c **** *  all signals on the port will be bypassed. All peripheral and gpio signals
 380:.\Generated_Source\PSoC4/SmartIO.c **** *  must be stopped or properly handled to account for the bypass state.
 381:.\Generated_Source\PSoC4/SmartIO.c **** *
 382:.\Generated_Source\PSoC4/SmartIO.c **** * \funcusage
 383:.\Generated_Source\PSoC4/SmartIO.c **** *  \snippet SmartIO_SUT.c usage_SmartIO_LUT_SelectInputs
 384:.\Generated_Source\PSoC4/SmartIO.c **** *******************************************************************************/
 385:.\Generated_Source\PSoC4/SmartIO.c **** cystatus SmartIO_LUT_SelectInputs(uint32 lutNum, uint32 inputNum, uint32 inputSrc)
 386:.\Generated_Source\PSoC4/SmartIO.c **** {
 486              		.loc 1 386 0
 487              		.cfi_startproc
 488              	.LVL23:
 489 0000 30B5     		push	{r4, r5, lr}
 490              		.cfi_def_cfa_offset 12
 491              		.cfi_offset 4, -12
 492              		.cfi_offset 5, -8
 493              		.cfi_offset 14, -4
 494              	.LVL24:
 387:.\Generated_Source\PSoC4/SmartIO.c ****     cystatus callStatus = CYRET_SUCCESS;
 388:.\Generated_Source\PSoC4/SmartIO.c ****     uint32 sel;
 389:.\Generated_Source\PSoC4/SmartIO.c ****     
 390:.\Generated_Source\PSoC4/SmartIO.c ****     sel = SmartIO_LUT_CONGIG_BASE.lutSel[lutNum];
 495              		.loc 1 390 0
 496 0002 8400     		lsl	r4, r0, #2
 497 0004 254B     		ldr	r3, .L39
 498 0006 E458     		ldr	r4, [r4, r3]
 499              	.LVL25:
 391:.\Generated_Source\PSoC4/SmartIO.c ****     /* Must disable the block before configuring */
 392:.\Generated_Source\PSoC4/SmartIO.c ****     SmartIO_Disable();
 500              		.loc 1 392 0
 501 0008 254D     		ldr	r5, .L39+4
 502 000a 2B68     		ldr	r3, [r5]
 503 000c 5B00     		lsl	r3, r3, #1
 504 000e 5B08     		lsr	r3, r3, #1
 505 0010 2B60     		str	r3, [r5]
 393:.\Generated_Source\PSoC4/SmartIO.c **** 
 394:.\Generated_Source\PSoC4/SmartIO.c ****     if(inputSrc == SmartIO_SRC_LUT0)
 506              		.loc 1 394 0
 507 0012 002A     		cmp	r2, #0
 508 0014 3FD0     		beq	.L37
 395:.\Generated_Source\PSoC4/SmartIO.c ****     {
 396:.\Generated_Source\PSoC4/SmartIO.c ****         /* LUT input0 does not support LUT0 as an input */
 397:.\Generated_Source\PSoC4/SmartIO.c ****         callStatus = CYRET_BAD_PARAM;
 398:.\Generated_Source\PSoC4/SmartIO.c ****     }
 399:.\Generated_Source\PSoC4/SmartIO.c ****     else
 400:.\Generated_Source\PSoC4/SmartIO.c ****     {
ARM GAS  C:\Users\Xwx47\AppData\Local\Temp\ccePoOms.s 			page 17


 401:.\Generated_Source\PSoC4/SmartIO.c ****         switch(inputNum)
 509              		.loc 1 401 0
 510 0016 0229     		cmp	r1, #2
 511 0018 0ED0     		beq	.L32
 512 001a 02D8     		bhi	.L33
 513 001c 0129     		cmp	r1, #1
 514 001e 05D0     		beq	.L34
 515 0020 2EE0     		b	.L38
 516              	.L33:
 517 0022 0429     		cmp	r1, #4
 518 0024 11D0     		beq	.L35
 519 0026 0729     		cmp	r1, #7
 520 0028 18D0     		beq	.L36
 521 002a 29E0     		b	.L38
 522              	.L34:
 402:.\Generated_Source\PSoC4/SmartIO.c ****         {
 403:.\Generated_Source\PSoC4/SmartIO.c ****             case SmartIO_LUT_INPUT0:
 404:.\Generated_Source\PSoC4/SmartIO.c ****                 sel = (sel & SmartIO_LUT_TR0_CLEAR) 
 523              		.loc 1 404 0
 524 002c 0F23     		mov	r3, #15
 525 002e 9C43     		bic	r4, r3
 526              	.LVL26:
 405:.\Generated_Source\PSoC4/SmartIO.c ****                         | ((uint32)(inputSrc << CYFLD_PRGIO_PRT_LUT_TR0_SEL__OFFSET) & SmartIO_LUT_
 527              		.loc 1 405 0
 528 0030 1A40     		and	r2, r3
 529              	.LVL27:
 404:.\Generated_Source\PSoC4/SmartIO.c ****                         | ((uint32)(inputSrc << CYFLD_PRGIO_PRT_LUT_TR0_SEL__OFFSET) & SmartIO_LUT_
 530              		.loc 1 404 0
 531 0032 1443     		orr	r4, r2
 532              	.LVL28:
 387:.\Generated_Source\PSoC4/SmartIO.c ****     uint32 sel;
 533              		.loc 1 387 0
 534 0034 0022     		mov	r2, #0
 406:.\Generated_Source\PSoC4/SmartIO.c ****                 break;
 535              		.loc 1 406 0
 536 0036 24E0     		b	.L31
 537              	.LVL29:
 538              	.L32:
 407:.\Generated_Source\PSoC4/SmartIO.c ****             case SmartIO_LUT_INPUT1:
 408:.\Generated_Source\PSoC4/SmartIO.c ****                 sel = (sel & SmartIO_LUT_TR1_CLEAR) 
 539              		.loc 1 408 0
 540 0038 1A4B     		ldr	r3, .L39+8
 541 003a 1C40     		and	r4, r3
 542              	.LVL30:
 409:.\Generated_Source\PSoC4/SmartIO.c ****                         | ((uint32)(inputSrc << CYFLD_PRGIO_PRT_LUT_TR1_SEL__OFFSET) & SmartIO_LUT_
 543              		.loc 1 409 0
 544 003c 1202     		lsl	r2, r2, #8
 545              	.LVL31:
 546 003e F023     		mov	r3, #240
 547 0040 1B01     		lsl	r3, r3, #4
 548 0042 1A40     		and	r2, r3
 408:.\Generated_Source\PSoC4/SmartIO.c ****                         | ((uint32)(inputSrc << CYFLD_PRGIO_PRT_LUT_TR1_SEL__OFFSET) & SmartIO_LUT_
 549              		.loc 1 408 0
 550 0044 1443     		orr	r4, r2
 551              	.LVL32:
 387:.\Generated_Source\PSoC4/SmartIO.c ****     uint32 sel;
 552              		.loc 1 387 0
ARM GAS  C:\Users\Xwx47\AppData\Local\Temp\ccePoOms.s 			page 18


 553 0046 0022     		mov	r2, #0
 410:.\Generated_Source\PSoC4/SmartIO.c ****                 break;
 554              		.loc 1 410 0
 555 0048 1BE0     		b	.L31
 556              	.LVL33:
 557              	.L35:
 411:.\Generated_Source\PSoC4/SmartIO.c ****             case SmartIO_LUT_INPUT2:
 412:.\Generated_Source\PSoC4/SmartIO.c ****                 sel = (sel & SmartIO_LUT_TR2_CLEAR)
 558              		.loc 1 412 0
 559 004a 174B     		ldr	r3, .L39+12
 560 004c 1C40     		and	r4, r3
 561              	.LVL34:
 413:.\Generated_Source\PSoC4/SmartIO.c ****                         | ((uint32)(inputSrc << CYFLD_PRGIO_PRT_LUT_TR2_SEL__OFFSET) & SmartIO_LUT_
 562              		.loc 1 413 0
 563 004e 1204     		lsl	r2, r2, #16
 564              	.LVL35:
 565 0050 F023     		mov	r3, #240
 566 0052 1B03     		lsl	r3, r3, #12
 567 0054 1A40     		and	r2, r3
 412:.\Generated_Source\PSoC4/SmartIO.c ****                         | ((uint32)(inputSrc << CYFLD_PRGIO_PRT_LUT_TR2_SEL__OFFSET) & SmartIO_LUT_
 568              		.loc 1 412 0
 569 0056 1443     		orr	r4, r2
 570              	.LVL36:
 387:.\Generated_Source\PSoC4/SmartIO.c ****     uint32 sel;
 571              		.loc 1 387 0
 572 0058 0022     		mov	r2, #0
 414:.\Generated_Source\PSoC4/SmartIO.c ****                 break;
 573              		.loc 1 414 0
 574 005a 12E0     		b	.L31
 575              	.LVL37:
 576              	.L36:
 415:.\Generated_Source\PSoC4/SmartIO.c ****             case SmartIO_LUT_INPUT_ALL:
 416:.\Generated_Source\PSoC4/SmartIO.c ****                 sel = (sel & SmartIO_LUT_TR_CLEAR_ALL) 
 577              		.loc 1 416 0
 578 005c 134B     		ldr	r3, .L39+16
 579 005e 1C40     		and	r4, r3
 580              	.LVL38:
 417:.\Generated_Source\PSoC4/SmartIO.c ****                         | ((uint32)(inputSrc << CYFLD_PRGIO_PRT_LUT_TR0_SEL__OFFSET) & SmartIO_LUT_
 581              		.loc 1 417 0
 582 0060 0F23     		mov	r3, #15
 583 0062 1340     		and	r3, r2
 584 0064 1C43     		orr	r4, r3
 418:.\Generated_Source\PSoC4/SmartIO.c ****                         | ((uint32)(inputSrc << CYFLD_PRGIO_PRT_LUT_TR1_SEL__OFFSET) & SmartIO_LUT_
 585              		.loc 1 418 0
 586 0066 1302     		lsl	r3, r2, #8
 587 0068 F021     		mov	r1, #240
 588              	.LVL39:
 589 006a 0901     		lsl	r1, r1, #4
 590 006c 0B40     		and	r3, r1
 591 006e 2343     		orr	r3, r4
 419:.\Generated_Source\PSoC4/SmartIO.c ****                         | ((uint32)(inputSrc << CYFLD_PRGIO_PRT_LUT_TR2_SEL__OFFSET) & SmartIO_LUT_
 592              		.loc 1 419 0
 593 0070 1204     		lsl	r2, r2, #16
 594              	.LVL40:
 595 0072 F024     		mov	r4, #240
 596 0074 2403     		lsl	r4, r4, #12
 597 0076 2240     		and	r2, r4
ARM GAS  C:\Users\Xwx47\AppData\Local\Temp\ccePoOms.s 			page 19


 416:.\Generated_Source\PSoC4/SmartIO.c ****                         | ((uint32)(inputSrc << CYFLD_PRGIO_PRT_LUT_TR0_SEL__OFFSET) & SmartIO_LUT_
 598              		.loc 1 416 0
 599 0078 1343     		orr	r3, r2
 600 007a 1C1C     		mov	r4, r3
 601              	.LVL41:
 387:.\Generated_Source\PSoC4/SmartIO.c ****     uint32 sel;
 602              		.loc 1 387 0
 603 007c 0022     		mov	r2, #0
 420:.\Generated_Source\PSoC4/SmartIO.c ****                 break;
 604              		.loc 1 420 0
 605 007e 00E0     		b	.L31
 606              	.LVL42:
 607              	.L38:
 421:.\Generated_Source\PSoC4/SmartIO.c ****             default: 
 422:.\Generated_Source\PSoC4/SmartIO.c ****                 callStatus = CYRET_BAD_PARAM;
 608              		.loc 1 422 0
 609 0080 0122     		mov	r2, #1
 610              	.LVL43:
 611              	.L31:
 423:.\Generated_Source\PSoC4/SmartIO.c ****                 break;
 424:.\Generated_Source\PSoC4/SmartIO.c ****         }
 425:.\Generated_Source\PSoC4/SmartIO.c ****         SmartIO_LUT_CONGIG_BASE.lutSel[lutNum] = sel;
 612              		.loc 1 425 0
 613 0082 8300     		lsl	r3, r0, #2
 614 0084 0549     		ldr	r1, .L39
 615 0086 5C50     		str	r4, [r3, r1]
 426:.\Generated_Source\PSoC4/SmartIO.c ****         
 427:.\Generated_Source\PSoC4/SmartIO.c ****         /* Re-enable the block */
 428:.\Generated_Source\PSoC4/SmartIO.c ****         SmartIO_Enable();
 616              		.loc 1 428 0
 617 0088 0549     		ldr	r1, .L39+4
 618 008a 0B68     		ldr	r3, [r1]
 619 008c 8020     		mov	r0, #128
 620              	.LVL44:
 621 008e 0006     		lsl	r0, r0, #24
 622 0090 0343     		orr	r3, r0
 623 0092 0B60     		str	r3, [r1]
 624 0094 00E0     		b	.L30
 625              	.LVL45:
 626              	.L37:
 397:.\Generated_Source\PSoC4/SmartIO.c ****     }
 627              		.loc 1 397 0
 628 0096 0122     		mov	r2, #1
 629              	.LVL46:
 630              	.L30:
 429:.\Generated_Source\PSoC4/SmartIO.c ****     }    
 430:.\Generated_Source\PSoC4/SmartIO.c ****     return callStatus;
 431:.\Generated_Source\PSoC4/SmartIO.c **** }
 631              		.loc 1 431 0
 632 0098 101C     		mov	r0, r2
 633              		@ sp needed
 634              	.LVL47:
 635 009a 30BD     		pop	{r4, r5, pc}
 636              	.L40:
 637              		.align	2
 638              	.L39:
 639 009c 20010540 		.word	1074069792
ARM GAS  C:\Users\Xwx47\AppData\Local\Temp\ccePoOms.s 			page 20


 640 00a0 00010540 		.word	1074069760
 641 00a4 FFF0FFFF 		.word	-3841
 642 00a8 FFFFF0FF 		.word	-983041
 643 00ac F0F0F0FF 		.word	-986896
 644              		.cfi_endproc
 645              	.LFE8:
 646              		.size	SmartIO_LUT_SelectInputs, .-SmartIO_LUT_SelectInputs
 647              		.section	.text.SmartIO_LUT_ConfigureMode,"ax",%progbits
 648              		.align	2
 649              		.global	SmartIO_LUT_ConfigureMode
 650              		.code	16
 651              		.thumb_func
 652              		.type	SmartIO_LUT_ConfigureMode, %function
 653              	SmartIO_LUT_ConfigureMode:
 654              	.LFB9:
 432:.\Generated_Source\PSoC4/SmartIO.c **** 
 433:.\Generated_Source\PSoC4/SmartIO.c **** 
 434:.\Generated_Source\PSoC4/SmartIO.c **** /*******************************************************************************
 435:.\Generated_Source\PSoC4/SmartIO.c **** * Function Name: SmartIO_LUT_ConfigureMode
 436:.\Generated_Source\PSoC4/SmartIO.c **** ****************************************************************************//**
 437:.\Generated_Source\PSoC4/SmartIO.c **** *
 438:.\Generated_Source\PSoC4/SmartIO.c **** * \brief This function sets the logical function of the selected LUT (based on 
 439:.\Generated_Source\PSoC4/SmartIO.c **** *  the 3 inputs) and specifies its operating mode. 
 440:.\Generated_Source\PSoC4/SmartIO.c **** *
 441:.\Generated_Source\PSoC4/SmartIO.c **** *  This function can be used to configure multiple LUTs with the same 
 442:.\Generated_Source\PSoC4/SmartIO.c **** *  configuration. The LUT mapping (truth table) is defined as follows.
 443:.\Generated_Source\PSoC4/SmartIO.c **** *
 444:.\Generated_Source\PSoC4/SmartIO.c **** *   input2 | input1 | input0 | Mapping bit
 445:.\Generated_Source\PSoC4/SmartIO.c **** *   -------| ------ | ------ | -----------
 446:.\Generated_Source\PSoC4/SmartIO.c **** *     0    |   0    |   0    |    bit0
 447:.\Generated_Source\PSoC4/SmartIO.c **** *     0    |   0    |   1    |    bit1
 448:.\Generated_Source\PSoC4/SmartIO.c **** *     0    |   1    |   0    |    bit2
 449:.\Generated_Source\PSoC4/SmartIO.c **** *     0    |   1    |   1    |    bit3
 450:.\Generated_Source\PSoC4/SmartIO.c **** *     1    |   0    |   0    |    bit4
 451:.\Generated_Source\PSoC4/SmartIO.c **** *     1    |   0    |   1    |    bit5
 452:.\Generated_Source\PSoC4/SmartIO.c **** *     1    |   1    |   0    |    bit6
 453:.\Generated_Source\PSoC4/SmartIO.c **** *     1    |   1    |   1    |    bit7
 454:.\Generated_Source\PSoC4/SmartIO.c **** *
 455:.\Generated_Source\PSoC4/SmartIO.c **** * \param lutNum
 456:.\Generated_Source\PSoC4/SmartIO.c **** *  LUT number. Valid options are documented in \ref lutNumConst.
 457:.\Generated_Source\PSoC4/SmartIO.c **** *
 458:.\Generated_Source\PSoC4/SmartIO.c **** * \param mapping
 459:.\Generated_Source\PSoC4/SmartIO.c **** *  This is the LUT truth table. Bit0 corresponds to the LUT output when the 
 460:.\Generated_Source\PSoC4/SmartIO.c **** *  input value is (in2=0, in1=0, in0=0). Bit7 corresponds to the LUT output 
 461:.\Generated_Source\PSoC4/SmartIO.c **** *  when the input value is (in2=1, in1=1, in0=1).
 462:.\Generated_Source\PSoC4/SmartIO.c **** *
 463:.\Generated_Source\PSoC4/SmartIO.c **** * \param mode
 464:.\Generated_Source\PSoC4/SmartIO.c **** *  The LUT mode. Valid options are documented in \ref lutNumConst.
 465:.\Generated_Source\PSoC4/SmartIO.c **** * 
 466:.\Generated_Source\PSoC4/SmartIO.c **** * \sideeffect
 467:.\Generated_Source\PSoC4/SmartIO.c **** *  This function disables the block for reconfiguration. During this time,
 468:.\Generated_Source\PSoC4/SmartIO.c **** *  all signals on the port will be bypassed. All peripheral and gpio signals
 469:.\Generated_Source\PSoC4/SmartIO.c **** *  must be stopped or properly handled to account for the bypass state.
 470:.\Generated_Source\PSoC4/SmartIO.c **** *
 471:.\Generated_Source\PSoC4/SmartIO.c **** * \funcusage
 472:.\Generated_Source\PSoC4/SmartIO.c **** *  \snippet SmartIO_SUT.c usage_SmartIO_LUT_ConfigureMode
 473:.\Generated_Source\PSoC4/SmartIO.c **** *******************************************************************************/
ARM GAS  C:\Users\Xwx47\AppData\Local\Temp\ccePoOms.s 			page 21


 474:.\Generated_Source\PSoC4/SmartIO.c **** void SmartIO_LUT_ConfigureMode(uint32 lutNum, uint32 mapping, uint32 mode)
 475:.\Generated_Source\PSoC4/SmartIO.c **** {
 655              		.loc 1 475 0
 656              		.cfi_startproc
 657              	.LVL48:
 658 0000 F0B5     		push	{r4, r5, r6, r7, lr}
 659              		.cfi_def_cfa_offset 20
 660              		.cfi_offset 4, -20
 661              		.cfi_offset 5, -16
 662              		.cfi_offset 6, -12
 663              		.cfi_offset 7, -8
 664              		.cfi_offset 14, -4
 665 0002 0E1C     		mov	r6, r1
 476:.\Generated_Source\PSoC4/SmartIO.c ****     uint32 ctl;
 477:.\Generated_Source\PSoC4/SmartIO.c ****     
 478:.\Generated_Source\PSoC4/SmartIO.c ****     ctl = SmartIO_LUT_CONGIG_BASE.lutCtl[lutNum] & SmartIO_LUT_CTL_CLEAR;
 666              		.loc 1 478 0
 667 0004 0D4F     		ldr	r7, .L42
 668 0006 0830     		add	r0, r0, #8
 669              	.LVL49:
 670 0008 8000     		lsl	r0, r0, #2
 671              	.LVL50:
 672 000a C159     		ldr	r1, [r0, r7]
 673              	.LVL51:
 674 000c 890A     		lsr	r1, r1, #10
 675 000e 8C02     		lsl	r4, r1, #10
 676              	.LVL52:
 479:.\Generated_Source\PSoC4/SmartIO.c ****     /* Must disable the block before configuring */
 480:.\Generated_Source\PSoC4/SmartIO.c ****     SmartIO_Disable();
 677              		.loc 1 480 0
 678 0010 0B4D     		ldr	r5, .L42+4
 679 0012 2B68     		ldr	r3, [r5]
 680 0014 5B00     		lsl	r3, r3, #1
 681 0016 5B08     		lsr	r3, r3, #1
 682 0018 2B60     		str	r3, [r5]
 481:.\Generated_Source\PSoC4/SmartIO.c ****     SmartIO_LUT_CONGIG_BASE.lutCtl[lutNum] = ctl 
 482:.\Generated_Source\PSoC4/SmartIO.c ****                                             | (((uint32)((mapping << CYFLD_PRGIO_PRT_LUT__OFFSET)
 683              		.loc 1 482 0
 684 001a FF21     		mov	r1, #255
 685 001c 0E40     		and	r6, r1
 686              	.LVL53:
 483:.\Generated_Source\PSoC4/SmartIO.c ****                                             & SmartIO_LUT_MAP_MASK))
 484:.\Generated_Source\PSoC4/SmartIO.c ****                                             | ((uint32)(((uint32)mode << CYFLD_PRGIO_PRT_LUT_OPC__O
 687              		.loc 1 484 0
 688 001e 1202     		lsl	r2, r2, #8
 689              	.LVL54:
 690 0020 C023     		mov	r3, #192
 691 0022 9B00     		lsl	r3, r3, #2
 692 0024 1A40     		and	r2, r3
 693 0026 311C     		mov	r1, r6
 694 0028 1143     		orr	r1, r2
 482:.\Generated_Source\PSoC4/SmartIO.c ****                                             & SmartIO_LUT_MAP_MASK))
 695              		.loc 1 482 0
 696 002a 2143     		orr	r1, r4
 481:.\Generated_Source\PSoC4/SmartIO.c ****     SmartIO_LUT_CONGIG_BASE.lutCtl[lutNum] = ctl 
 697              		.loc 1 481 0
 698 002c C151     		str	r1, [r0, r7]
ARM GAS  C:\Users\Xwx47\AppData\Local\Temp\ccePoOms.s 			page 22


 485:.\Generated_Source\PSoC4/SmartIO.c ****                                             & SmartIO_LUT_OPC_MASK)));
 486:.\Generated_Source\PSoC4/SmartIO.c ****     /* Re-enable the block */
 487:.\Generated_Source\PSoC4/SmartIO.c ****     SmartIO_Enable();
 699              		.loc 1 487 0
 700 002e 2B68     		ldr	r3, [r5]
 701 0030 8022     		mov	r2, #128
 702 0032 1206     		lsl	r2, r2, #24
 703 0034 1343     		orr	r3, r2
 704 0036 2B60     		str	r3, [r5]
 488:.\Generated_Source\PSoC4/SmartIO.c **** }
 705              		.loc 1 488 0
 706              		@ sp needed
 707              	.LVL55:
 708 0038 F0BD     		pop	{r4, r5, r6, r7, pc}
 709              	.L43:
 710 003a C046     		.align	2
 711              	.L42:
 712 003c 20010540 		.word	1074069792
 713 0040 00010540 		.word	1074069760
 714              		.cfi_endproc
 715              	.LFE9:
 716              		.size	SmartIO_LUT_ConfigureMode, .-SmartIO_LUT_ConfigureMode
 717              		.global	SmartIO_initVar
 718              		.bss
 719              		.align	2
 720              		.set	.LANCHOR0,. + 0
 721              		.type	SmartIO_clkConfig, %object
 722              		.size	SmartIO_clkConfig, 4
 723              	SmartIO_clkConfig:
 724 0000 00000000 		.space	4
 725              		.type	SmartIO_initVar, %object
 726              		.size	SmartIO_initVar, 1
 727              	SmartIO_initVar:
 728 0004 00       		.space	1
 729 0005 000000   		.text
 730              	.Letext0:
 731              		.file 2 "Generated_Source\\PSoC4/cytypes.h"
 732              		.file 3 ".\\Generated_Source\\PSoC4\\SmartIO.h"